target datalayout = "e-m:e-p270:32:32-p271:32:32-p272:64:64-i64:64-i128:128-f80:128-n8:16:32:64-S128"
target triple = "x86_64-pc-linux-gnu"

%struct.settings = type { i64, i32, i32, i32, ptr, i32, i32, i32, ptr, ptr, i32, double, i32, i32, i32, i8, i32, i32, i8, i32, i32, i32, i32, i32, i32, i8, i8, i8, i8, i8, i8, i8, i32, i32, double, double, i32, i32, i8, i32, i8, i8, ptr, i32, i32, i32, i32, double, double, i32, i8, i32, i32, i32, i32, i32, i8, i8, i8, ptr, i32, i32, i32, i32, i32, i32, i32, i32, i32, i32, double, i8, i32, i32, ptr, i32 }
%struct.slabclass_t = type { i32, i32, ptr, i32, i32, ptr, i32 }

@settings = external global %struct.settings, align 8
@slabclass = internal global [64 x %struct.slabclass_t] zeroinitializer, align 16
@power_largest = internal global i32 0, align 4
@mem_limit = internal global i64 0, align 8
@mem_base = internal global ptr null, align 8
@mem_current = internal global ptr null, align 8
@mem_avail = internal global i64 0, align 8
@mem_malloced = internal global i64 0, align 8
@mem_limit_reached = internal global i8 0, align 1

; Function Attrs: nounwind uwtable
define internal i32 @do_grow_slab_list(i32 noundef %0) #0 {
  %2 = alloca i32, align 4
  %3 = alloca i32, align 4
  %4 = alloca ptr, align 8
  %5 = alloca i64, align 8
  %6 = alloca ptr, align 8
  %7 = alloca i32, align 4
  store i32 %0, ptr %3, align 4, !tbaa !8
  %8 = load i32, ptr %3, align 4, !tbaa !8
  %9 = load i32, ptr @power_largest, align 4, !tbaa !8
  %10 = icmp ugt i32 %8, %9
  br i1 %10, label %11, label %12

11:                                               ; preds = %1
  store i32 0, ptr %2, align 4
  br label %59

12:                                               ; preds = %1
  call void @llvm.lifetime.start.p0(i64 8, ptr %4) #9
  %13 = load i32, ptr %3, align 4, !tbaa !8
  %14 = zext i32 %13 to i64
  %15 = getelementptr inbounds nuw [64 x %struct.slabclass_t], ptr @slabclass, i64 0, i64 %14
  store ptr %15, ptr %4, align 8, !tbaa !25
  %16 = load ptr, ptr %4, align 8, !tbaa !25
  %17 = getelementptr inbounds nuw %struct.slabclass_t, ptr %16, i32 0, i32 4
  %18 = load i32, ptr %17, align 4, !tbaa !27
  %19 = load ptr, ptr %4, align 8, !tbaa !25
  %20 = getelementptr inbounds nuw %struct.slabclass_t, ptr %19, i32 0, i32 6
  %21 = load i32, ptr %20, align 8, !tbaa !32
  %22 = icmp eq i32 %18, %21
  br i1 %22, label %23, label %57

23:                                               ; preds = %12
  call void @llvm.lifetime.start.p0(i64 8, ptr %5) #9
  %24 = load ptr, ptr %4, align 8, !tbaa !25
  %25 = getelementptr inbounds nuw %struct.slabclass_t, ptr %24, i32 0, i32 6
  %26 = load i32, ptr %25, align 8, !tbaa !32
  %27 = icmp ne i32 %26, 0
  br i1 %27, label %28, label %33

28:                                               ; preds = %23
  %29 = load ptr, ptr %4, align 8, !tbaa !25
  %30 = getelementptr inbounds nuw %struct.slabclass_t, ptr %29, i32 0, i32 6
  %31 = load i32, ptr %30, align 8, !tbaa !32
  %32 = mul i32 %31, 2
  br label %34

33:                                               ; preds = %23
  br label %34

34:                                               ; preds = %33, %28
  %35 = phi i32 [ %32, %28 ], [ 16, %33 ]
  %36 = zext i32 %35 to i64
  store i64 %36, ptr %5, align 8, !tbaa !4
  call void @llvm.lifetime.start.p0(i64 8, ptr %6) #9
  %37 = load ptr, ptr %4, align 8, !tbaa !25
  %38 = getelementptr inbounds nuw %struct.slabclass_t, ptr %37, i32 0, i32 5
  %39 = load ptr, ptr %38, align 8, !tbaa !26
  %40 = load i64, ptr %5, align 8, !tbaa !4
  %41 = mul i64 %40, 8
  %42 = call ptr @realloc(ptr noundef %39, i64 noundef %41) #10
  store ptr %42, ptr %6, align 8, !tbaa !25
  %43 = load ptr, ptr %6, align 8, !tbaa !25
  %44 = icmp eq ptr %43, null
  br i1 %44, label %45, label %46

45:                                               ; preds = %34
  store i32 0, ptr %2, align 4
  store i32 1, ptr %7, align 4
  br label %54

46:                                               ; preds = %34
  %47 = load i64, ptr %5, align 8, !tbaa !4
  %48 = trunc i64 %47 to i32
  %49 = load ptr, ptr %4, align 8, !tbaa !25
  %50 = getelementptr inbounds nuw %struct.slabclass_t, ptr %49, i32 0, i32 6
  store i32 %48, ptr %50, align 8, !tbaa !32
  %51 = load ptr, ptr %6, align 8, !tbaa !25
  %52 = load ptr, ptr %4, align 8, !tbaa !25
  %53 = getelementptr inbounds nuw %struct.slabclass_t, ptr %52, i32 0, i32 5
  store ptr %51, ptr %53, align 8, !tbaa !26
  store i32 0, ptr %7, align 4
  br label %54

54:                                               ; preds = %46, %45
  call void @llvm.lifetime.end.p0(i64 8, ptr %6) #9
  call void @llvm.lifetime.end.p0(i64 8, ptr %5) #9
  %55 = load i32, ptr %7, align 4
  switch i32 %55, label %58 [
    i32 0, label %56
  ]

56:                                               ; preds = %54
  br label %57

57:                                               ; preds = %56, %12
  store i32 1, ptr %2, align 4
  store i32 1, ptr %7, align 4
  br label %58

58:                                               ; preds = %57, %54
  call void @llvm.lifetime.end.p0(i64 8, ptr %4) #9
  br label %59

59:                                               ; preds = %58, %11
  %60 = load i32, ptr %2, align 4
  ret i32 %60
}

; Function Attrs: nounwind uwtable
define internal ptr @memory_allocate(i64 noundef %0) #0 {
  %2 = alloca ptr, align 8
  %3 = alloca i64, align 8
  %4 = alloca ptr, align 8
  %5 = alloca i32, align 4
  store i64 %0, ptr %3, align 8, !tbaa !4
  call void @llvm.lifetime.start.p0(i64 8, ptr %4) #9
  %6 = load ptr, ptr @mem_base, align 8, !tbaa !25
  %7 = icmp eq ptr %6, null
  br i1 %7, label %8, label %11

8:                                                ; preds = %1
  %9 = load i64, ptr %3, align 8, !tbaa !4
  %10 = call noalias ptr @malloc(i64 noundef %9) #13
  store ptr %10, ptr %4, align 8, !tbaa !25
  br label %40

11:                                               ; preds = %1
  %12 = load ptr, ptr @mem_current, align 8, !tbaa !25
  store ptr %12, ptr %4, align 8, !tbaa !25
  %13 = load i64, ptr %3, align 8, !tbaa !4
  %14 = load i64, ptr @mem_avail, align 8, !tbaa !4
  %15 = icmp ugt i64 %13, %14
  br i1 %15, label %16, label %17

16:                                               ; preds = %11
  store ptr null, ptr %2, align 8
  store i32 1, ptr %5, align 4
  br label %45

17:                                               ; preds = %11
  %18 = load i64, ptr %3, align 8, !tbaa !4
  %19 = urem i64 %18, 8
  %20 = icmp ne i64 %19, 0
  br i1 %20, label %21, label %27

21:                                               ; preds = %17
  %22 = load i64, ptr %3, align 8, !tbaa !4
  %23 = urem i64 %22, 8
  %24 = sub i64 8, %23
  %25 = load i64, ptr %3, align 8, !tbaa !4
  %26 = add i64 %25, %24
  store i64 %26, ptr %3, align 8, !tbaa !4
  br label %27

27:                                               ; preds = %21, %17
  %28 = load ptr, ptr @mem_current, align 8, !tbaa !25
  %29 = load i64, ptr %3, align 8, !tbaa !4
  %30 = getelementptr inbounds nuw i8, ptr %28, i64 %29
  store ptr %30, ptr @mem_current, align 8, !tbaa !25
  %31 = load i64, ptr %3, align 8, !tbaa !4
  %32 = load i64, ptr @mem_avail, align 8, !tbaa !4
  %33 = icmp ult i64 %31, %32
  br i1 %33, label %34, label %38

34:                                               ; preds = %27
  %35 = load i64, ptr %3, align 8, !tbaa !4
  %36 = load i64, ptr @mem_avail, align 8, !tbaa !4
  %37 = sub i64 %36, %35
  store i64 %37, ptr @mem_avail, align 8, !tbaa !4
  br label %39

38:                                               ; preds = %27
  store i64 0, ptr @mem_avail, align 8, !tbaa !4
  br label %39

39:                                               ; preds = %38, %34
  br label %40

40:                                               ; preds = %39, %8
  %41 = load i64, ptr %3, align 8, !tbaa !4
  %42 = load i64, ptr @mem_malloced, align 8, !tbaa !4
  %43 = add i64 %42, %41
  store i64 %43, ptr @mem_malloced, align 8, !tbaa !4
  %44 = load ptr, ptr %4, align 8, !tbaa !25
  store ptr %44, ptr %2, align 8
  store i32 1, ptr %5, align 4
  br label %45

45:                                               ; preds = %40, %16
  call void @llvm.lifetime.end.p0(i64 8, ptr %4) #9
  %46 = load ptr, ptr %2, align 8
  ret ptr %46
}

; Function Attrs: nounwind uwtable
define dso_local void @slabs_prefill_global() #0 {
  %1 = alloca ptr, align 8
  %2 = alloca ptr, align 8
  %3 = alloca i32, align 4
  call void @llvm.lifetime.start.p0(i64 8, ptr %1) #9
  call void @llvm.lifetime.start.p0(i64 8, ptr %2) #9
  store ptr @slabclass, ptr %2, align 8, !tbaa !25
  call void @llvm.lifetime.start.p0(i64 4, ptr %3) #9
  %4 = load i32, ptr getelementptr inbounds nuw (%struct.settings, ptr @settings, i32 0, i32 23), align 4, !tbaa !43
  store i32 %4, ptr %3, align 4, !tbaa !8
  br label %5

5:                                                ; preds = %16, %0
  %6 = load i64, ptr @mem_malloced, align 8, !tbaa !4
  %7 = load i64, ptr @mem_limit, align 8, !tbaa !4
  %8 = icmp ult i64 %6, %7
  br i1 %8, label %9, label %14

9:                                                ; preds = %5
  %10 = load i32, ptr %3, align 4, !tbaa !8
  %11 = sext i32 %10 to i64
  %12 = call ptr @memory_allocate(i64 noundef %11)
  store ptr %12, ptr %1, align 8, !tbaa !25
  %13 = icmp ne ptr %12, null
  br label %14

14:                                               ; preds = %9, %5
  %15 = phi i1 [ false, %5 ], [ %13, %9 ]
  br i1 %15, label %16, label %29

16:                                               ; preds = %14
  %17 = call i32 @do_grow_slab_list(i32 noundef 0)
  %18 = load ptr, ptr %1, align 8, !tbaa !25
  call void @llvm.memset.p0.i64(ptr align 1 %18, i8 0, i64 48, i1 false)
  %19 = load ptr, ptr %1, align 8, !tbaa !25
  %20 = load ptr, ptr %2, align 8, !tbaa !25
  %21 = getelementptr inbounds nuw %struct.slabclass_t, ptr %20, i32 0, i32 5
  %22 = load ptr, ptr %21, align 8, !tbaa !26
  %23 = load ptr, ptr %2, align 8, !tbaa !25
  %24 = getelementptr inbounds nuw %struct.slabclass_t, ptr %23, i32 0, i32 4
  %25 = load i32, ptr %24, align 4, !tbaa !27
  %26 = add i32 %25, 1
  store i32 %26, ptr %24, align 4, !tbaa !27
  %27 = zext i32 %25 to i64
  %28 = getelementptr inbounds nuw ptr, ptr %22, i64 %27
  store ptr %19, ptr %28, align 8, !tbaa !25
  br label %5, !llvm.loop !49

29:                                               ; preds = %14
  store i8 1, ptr @mem_limit_reached, align 1, !tbaa !34
  call void @llvm.lifetime.end.p0(i64 4, ptr %3) #9
  call void @llvm.lifetime.end.p0(i64 8, ptr %2) #9
  call void @llvm.lifetime.end.p0(i64 8, ptr %1) #9
  ret void
}