; Function Attrs: nounwind uwtable
define dso_local void @slabs_prefill_global() local_unnamed_addr #4 {
  %1 = load i64, ptr @mem_limit, align 8, !tbaa !31
  %mem_malloced.promoted = load i64, ptr @mem_malloced, align 8, !tbaa !31
  %2 = icmp ult i64 %mem_malloced.promoted, %1
  br i1 %2, label %.lr.ph, label %.critedge

.lr.ph:                                           ; preds = %0
  %.promoted9 = load ptr, ptr getelementptr inbounds nuw (i8, ptr @slabclass, i64 24), align 8
  %.promoted6 = load i32, ptr getelementptr inbounds nuw (i8, ptr @slabclass, i64 32), align 16
  %.promoted = load i32, ptr getelementptr inbounds nuw (i8, ptr @slabclass, i64 20), align 4
  %3 = load i32, ptr getelementptr inbounds nuw (i8, ptr @settings, i64 124), align 4, !tbaa !37
  %4 = sext i32 %3 to i64
  %5 = load ptr, ptr @mem_base, align 8, !tbaa !16
  %6 = icmp eq ptr %5, null
  %.biased.i = add nsw i64 %4, 7
  %.1.i = and i64 %.biased.i, -8
  br i1 %6, label %memory_allocate.exit.us, label %.lr.ph.split.preheader

.lr.ph.split.preheader:                           ; preds = %.lr.ph
  %mem_current.promoted = load ptr, ptr @mem_current, align 8
  %mem_avail.promoted = load i64, ptr @mem_avail, align 8
  br label %.lr.ph.split

memory_allocate.exit.us:                          ; preds = %.lr.ph, %do_grow_slab_list.exit.us
  %7 = phi i64 [ %11, %do_grow_slab_list.exit.us ], [ %mem_malloced.promoted, %.lr.ph ]
  %8 = phi i32 [ %21, %do_grow_slab_list.exit.us ], [ %.promoted, %.lr.ph ]
  %spec.select.i810.us = phi i32 [ %spec.select.i7.us, %do_grow_slab_list.exit.us ], [ %.promoted6, %.lr.ph ]
  %9 = phi ptr [ %20, %do_grow_slab_list.exit.us ], [ %.promoted9, %.lr.ph ]
  %10 = tail call noalias ptr @malloc(i64 noundef range(i64 -2147483648, 2147483648) %4) #25
  %11 = add i64 %7, %4
  %.not.us = icmp eq ptr %10, null
  br i1 %.not.us, label %.critedge.sink.split, label %12

12:                                               ; preds = %memory_allocate.exit.us
  %13 = icmp eq i32 %8, %spec.select.i810.us
  br i1 %13, label %14, label %do_grow_slab_list.exit.us

14:                                               ; preds = %12
  %.not.i.us = icmp eq i32 %8, 0
  %15 = shl i32 %8, 1
  %spec.select.i.us = select i1 %.not.i.us, i32 16, i32 %15
  %16 = zext i32 %spec.select.i.us to i64
  %17 = shl nuw nsw i64 %16, 3
  %18 = tail call ptr @realloc(ptr noundef %9, i64 noundef %17) #20
  %.not18.i.us = icmp eq ptr %18, null
  br i1 %.not18.i.us, label %do_grow_slab_list.exit.us, label %19

19:                                               ; preds = %14
  store i32 %spec.select.i.us, ptr getelementptr inbounds nuw (i8, ptr @slabclass, i64 32), align 16, !tbaa !14
  store ptr %18, ptr getelementptr inbounds nuw (i8, ptr @slabclass, i64 24), align 8, !tbaa !15
  br label %do_grow_slab_list.exit.us

do_grow_slab_list.exit.us:                        ; preds = %19, %14, %12
  %20 = phi ptr [ %9, %12 ], [ %9, %14 ], [ %18, %19 ]
  %spec.select.i7.us = phi i32 [ %spec.select.i810.us, %12 ], [ %8, %14 ], [ %spec.select.i.us, %19 ]
  tail call void @llvm.memset.p0.i64(ptr noundef nonnull align 1 dereferenceable(48) %10, i8 0, i64 48, i1 false)
  %21 = add i32 %8, 1
  store i32 %21, ptr getelementptr inbounds nuw (i8, ptr @slabclass, i64 20), align 4, !tbaa !13
  %22 = zext i32 %8 to i64
  %23 = getelementptr inbounds nuw ptr, ptr %20, i64 %22
  store ptr %10, ptr %23, align 8, !tbaa !16
  %24 = icmp ult i64 %11, %1
  br i1 %24, label %memory_allocate.exit.us, label %.critedge.sink.split, !llvm.loop !41

.lr.ph.split:                                     ; preds = %.lr.ph.split.preheader, %do_grow_slab_list.exit
  %25 = phi i64 [ %32, %do_grow_slab_list.exit ], [ %mem_malloced.promoted, %.lr.ph.split.preheader ]
  %26 = phi ptr [ %31, %do_grow_slab_list.exit ], [ %mem_current.promoted, %.lr.ph.split.preheader ]
  %27 = phi i64 [ %spec.select, %do_grow_slab_list.exit ], [ %mem_avail.promoted, %.lr.ph.split.preheader ]
  %28 = phi i32 [ %42, %do_grow_slab_list.exit ], [ %.promoted, %.lr.ph.split.preheader ]
  %spec.select.i810 = phi i32 [ %spec.select.i7, %do_grow_slab_list.exit ], [ %.promoted6, %.lr.ph.split.preheader ]
  %29 = phi ptr [ %41, %do_grow_slab_list.exit ], [ %.promoted9, %.lr.ph.split.preheader ]
  %30 = icmp ult i64 %27, %4
  br i1 %30, label %.critedge, label %memory_allocate.exit

memory_allocate.exit:                             ; preds = %.lr.ph.split
  %31 = getelementptr inbounds nuw i8, ptr %26, i64 %.1.i
  store ptr %31, ptr @mem_current, align 8, !tbaa !16
  %spec.select = tail call i64 @llvm.usub.sat.i64(i64 %27, i64 %.1.i)
  store i64 %spec.select, ptr @mem_avail, align 8, !tbaa !31
  %32 = add i64 %.1.i, %25
  store i64 %32, ptr @mem_malloced, align 8, !tbaa !31
  %.not = icmp eq ptr %26, null
  br i1 %.not, label %.critedge, label %33

33:                                               ; preds = %memory_allocate.exit
  %34 = icmp eq i32 %28, %spec.select.i810
  br i1 %34, label %35, label %do_grow_slab_list.exit

35:                                               ; preds = %33
  %.not.i = icmp eq i32 %28, 0
  %36 = shl i32 %28, 1
  %spec.select.i = select i1 %.not.i, i32 16, i32 %36
  %37 = zext i32 %spec.select.i to i64
  %38 = shl nuw nsw i64 %37, 3
  %39 = tail call ptr @realloc(ptr noundef %29, i64 noundef %38) #20
  %.not18.i = icmp eq ptr %39, null
  br i1 %.not18.i, label %do_grow_slab_list.exit, label %40

40:                                               ; preds = %35
  store i32 %spec.select.i, ptr getelementptr inbounds nuw (i8, ptr @slabclass, i64 32), align 16, !tbaa !14
  store ptr %39, ptr getelementptr inbounds nuw (i8, ptr @slabclass, i64 24), align 8, !tbaa !15
  br label %do_grow_slab_list.exit

do_grow_slab_list.exit:                           ; preds = %33, %35, %40
  %41 = phi ptr [ %29, %33 ], [ %29, %35 ], [ %39, %40 ]
  %spec.select.i7 = phi i32 [ %spec.select.i810, %33 ], [ %28, %35 ], [ %spec.select.i, %40 ]
  tail call void @llvm.memset.p0.i64(ptr noundef nonnull align 1 dereferenceable(48) %26, i8 0, i64 48, i1 false)
  %42 = add i32 %28, 1
  store i32 %42, ptr getelementptr inbounds nuw (i8, ptr @slabclass, i64 20), align 4, !tbaa !13
  %43 = zext i32 %28 to i64
  %44 = getelementptr inbounds nuw ptr, ptr %41, i64 %43
  store ptr %26, ptr %44, align 8, !tbaa !16
  %45 = icmp ult i64 %32, %1
  br i1 %45, label %.lr.ph.split, label %.critedge, !llvm.loop !41

.critedge.sink.split:                             ; preds = %do_grow_slab_list.exit.us, %memory_allocate.exit.us
  store i64 %11, ptr @mem_malloced, align 8, !tbaa !31
  br label %.critedge

.critedge:                                        ; preds = %memory_allocate.exit, %do_grow_slab_list.exit, %.lr.ph.split, %.critedge.sink.split, %0
  ret void
}